
rv64ui-p-ld:     file format elf64-littleriscv


Disassembly of section .text.init:

0000000080000000 <_start>:
    80000000:	0500006f          	j	80000050 <reset_vector>

0000000080000004 <trap_vector>:
    80000004:	34202f73          	csrr	t5,mcause
    80000008:	00800f93          	li	t6,8
    8000000c:	03ff0863          	beq	t5,t6,8000003c <write_tohost>
    80000010:	00900f93          	li	t6,9
    80000014:	03ff0463          	beq	t5,t6,8000003c <write_tohost>
    80000018:	00b00f93          	li	t6,11
    8000001c:	03ff0063          	beq	t5,t6,8000003c <write_tohost>
    80000020:	00000f13          	li	t5,0
    80000024:	000f0463          	beqz	t5,8000002c <trap_vector+0x28>
    80000028:	000f0067          	jr	t5
    8000002c:	34202f73          	csrr	t5,mcause
    80000030:	000f5463          	bgez	t5,80000038 <handle_exception>
    80000034:	0040006f          	j	80000038 <handle_exception>

0000000080000038 <handle_exception>:
    80000038:	5391e193          	or	gp,gp,1337

000000008000003c <write_tohost>:
    8000003c:	00001f17          	auipc	t5,0x1
    80000040:	fc3f2223          	sw	gp,-60(t5) # 80001000 <tohost>
    80000044:	00001f17          	auipc	t5,0x1
    80000048:	fc0f2023          	sw	zero,-64(t5) # 80001004 <tohost+0x4>
    8000004c:	ff1ff06f          	j	8000003c <write_tohost>

0000000080000050 <reset_vector>:
    80000050:	00000093          	li	ra,0
    80000054:	00000113          	li	sp,0
    80000058:	00000193          	li	gp,0
    8000005c:	00000213          	li	tp,0
    80000060:	00000293          	li	t0,0
    80000064:	00000313          	li	t1,0
    80000068:	00000393          	li	t2,0
    8000006c:	00000413          	li	s0,0
    80000070:	00000493          	li	s1,0
    80000074:	00000513          	li	a0,0
    80000078:	00000593          	li	a1,0
    8000007c:	00000613          	li	a2,0
    80000080:	00000693          	li	a3,0
    80000084:	00000713          	li	a4,0
    80000088:	00000793          	li	a5,0
    8000008c:	00000813          	li	a6,0
    80000090:	00000893          	li	a7,0
    80000094:	00000913          	li	s2,0
    80000098:	00000993          	li	s3,0
    8000009c:	00000a13          	li	s4,0
    800000a0:	00000a93          	li	s5,0
    800000a4:	00000b13          	li	s6,0
    800000a8:	00000b93          	li	s7,0
    800000ac:	00000c13          	li	s8,0
    800000b0:	00000c93          	li	s9,0
    800000b4:	00000d13          	li	s10,0
    800000b8:	00000d93          	li	s11,0
    800000bc:	00000e13          	li	t3,0
    800000c0:	00000e93          	li	t4,0
    800000c4:	00000f13          	li	t5,0
    800000c8:	00000f93          	li	t6,0
    800000cc:	f1402573          	csrr	a0,mhartid
    800000d0:	00051063          	bnez	a0,800000d0 <reset_vector+0x80>
    800000d4:	00000297          	auipc	t0,0x0
    800000d8:	00c28293          	add	t0,t0,12 # 800000e0 <reset_vector+0x90>
    800000dc:	30529073          	csrw	mtvec,t0
    800000e0:	00000297          	auipc	t0,0x0
    800000e4:	01028293          	add	t0,t0,16 # 800000f0 <reset_vector+0xa0>
    800000e8:	30529073          	csrw	mtvec,t0
    800000ec:	18005073          	csrw	satp,0
    800000f0:	00000297          	auipc	t0,0x0
    800000f4:	02428293          	add	t0,t0,36 # 80000114 <reset_vector+0xc4>
    800000f8:	30529073          	csrw	mtvec,t0
    800000fc:	0010029b          	addw	t0,zero,1
    80000100:	03529293          	sll	t0,t0,0x35
    80000104:	fff28293          	add	t0,t0,-1
    80000108:	3b029073          	csrw	pmpaddr0,t0
    8000010c:	01f00293          	li	t0,31
    80000110:	3a029073          	csrw	pmpcfg0,t0
    80000114:	30405073          	csrw	mie,0
    80000118:	00000297          	auipc	t0,0x0
    8000011c:	01428293          	add	t0,t0,20 # 8000012c <reset_vector+0xdc>
    80000120:	30529073          	csrw	mtvec,t0
    80000124:	30205073          	csrw	medeleg,0
    80000128:	30305073          	csrw	mideleg,0
    8000012c:	00000193          	li	gp,0
    80000130:	00000297          	auipc	t0,0x0
    80000134:	ed428293          	add	t0,t0,-300 # 80000004 <trap_vector>
    80000138:	30529073          	csrw	mtvec,t0
    8000013c:	00100513          	li	a0,1
    80000140:	01f51513          	sll	a0,a0,0x1f
    80000144:	00055c63          	bgez	a0,8000015c <reset_vector+0x10c>
    80000148:	0ff0000f          	fence
    8000014c:	00100193          	li	gp,1
    80000150:	05d00893          	li	a7,93
    80000154:	00000513          	li	a0,0
    80000158:	00000073          	ecall
    8000015c:	00000293          	li	t0,0
    80000160:	00028a63          	beqz	t0,80000174 <reset_vector+0x124>
    80000164:	10529073          	csrw	stvec,t0
    80000168:	0000b2b7          	lui	t0,0xb
    8000016c:	1092829b          	addw	t0,t0,265 # b109 <_start-0x7fff4ef7>
    80000170:	30229073          	csrw	medeleg,t0
    80000174:	30005073          	csrw	mstatus,0
    80000178:	00000297          	auipc	t0,0x0
    8000017c:	01428293          	add	t0,t0,20 # 8000018c <test_2>
    80000180:	34129073          	csrw	mepc,t0
    80000184:	f1402573          	csrr	a0,mhartid
    80000188:	30200073          	mret

000000008000018c <test_2>:
    8000018c:	00200193          	li	gp,2
    80000190:	00ff07b7          	lui	a5,0xff0
    80000194:	0ff7879b          	addw	a5,a5,255 # ff00ff <_start-0x7f00ff01>
    80000198:	01079793          	sll	a5,a5,0x10
    8000019c:	0ff78793          	add	a5,a5,255
    800001a0:	01079793          	sll	a5,a5,0x10
    800001a4:	0ff78793          	add	a5,a5,255
    800001a8:	00002097          	auipc	ra,0x2
    800001ac:	e5808093          	add	ra,ra,-424 # 80002000 <begin_signature>
    800001b0:	0000b703          	ld	a4,0(ra)
    800001b4:	00ff03b7          	lui	t2,0xff0
    800001b8:	0ff3839b          	addw	t2,t2,255 # ff00ff <_start-0x7f00ff01>
    800001bc:	01039393          	sll	t2,t2,0x10
    800001c0:	0ff38393          	add	t2,t2,255
    800001c4:	01039393          	sll	t2,t2,0x10
    800001c8:	0ff38393          	add	t2,t2,255
    800001cc:	46771663          	bne	a4,t2,80000638 <fail>

00000000800001d0 <test_3>:
    800001d0:	00300193          	li	gp,3
    800001d4:	ff0107b7          	lui	a5,0xff010
    800001d8:	f017879b          	addw	a5,a5,-255 # ffffffffff00ff01 <_end+0xffffffff7f00dee1>
    800001dc:	01079793          	sll	a5,a5,0x10
    800001e0:	f0178793          	add	a5,a5,-255
    800001e4:	01079793          	sll	a5,a5,0x10
    800001e8:	f0078793          	add	a5,a5,-256
    800001ec:	00002097          	auipc	ra,0x2
    800001f0:	e1408093          	add	ra,ra,-492 # 80002000 <begin_signature>
    800001f4:	0080b703          	ld	a4,8(ra)
    800001f8:	ff0103b7          	lui	t2,0xff010
    800001fc:	f013839b          	addw	t2,t2,-255 # ffffffffff00ff01 <_end+0xffffffff7f00dee1>
    80000200:	01039393          	sll	t2,t2,0x10
    80000204:	f0138393          	add	t2,t2,-255
    80000208:	01039393          	sll	t2,t2,0x10
    8000020c:	f0038393          	add	t2,t2,-256
    80000210:	42771463          	bne	a4,t2,80000638 <fail>

0000000080000214 <test_4>:
    80000214:	00400193          	li	gp,4
    80000218:	000107b7          	lui	a5,0x10
    8000021c:	f017879b          	addw	a5,a5,-255 # ff01 <_start-0x7fff00ff>
    80000220:	01079793          	sll	a5,a5,0x10
    80000224:	f0178793          	add	a5,a5,-255
    80000228:	01079793          	sll	a5,a5,0x10
    8000022c:	f0178793          	add	a5,a5,-255
    80000230:	00c79793          	sll	a5,a5,0xc
    80000234:	ff078793          	add	a5,a5,-16
    80000238:	00002097          	auipc	ra,0x2
    8000023c:	dc808093          	add	ra,ra,-568 # 80002000 <begin_signature>
    80000240:	0100b703          	ld	a4,16(ra)
    80000244:	000103b7          	lui	t2,0x10
    80000248:	f013839b          	addw	t2,t2,-255 # ff01 <_start-0x7fff00ff>
    8000024c:	01039393          	sll	t2,t2,0x10
    80000250:	f0138393          	add	t2,t2,-255
    80000254:	01039393          	sll	t2,t2,0x10
    80000258:	f0138393          	add	t2,t2,-255
    8000025c:	00c39393          	sll	t2,t2,0xc
    80000260:	ff038393          	add	t2,t2,-16
    80000264:	3c771a63          	bne	a4,t2,80000638 <fail>

0000000080000268 <test_5>:
    80000268:	00500193          	li	gp,5
    8000026c:	ffff07b7          	lui	a5,0xffff0
    80000270:	0ff7879b          	addw	a5,a5,255 # ffffffffffff00ff <_end+0xffffffff7ffee0df>
    80000274:	01079793          	sll	a5,a5,0x10
    80000278:	0ff78793          	add	a5,a5,255
    8000027c:	01079793          	sll	a5,a5,0x10
    80000280:	0ff78793          	add	a5,a5,255
    80000284:	00c79793          	sll	a5,a5,0xc
    80000288:	00f78793          	add	a5,a5,15
    8000028c:	00002097          	auipc	ra,0x2
    80000290:	d7408093          	add	ra,ra,-652 # 80002000 <begin_signature>
    80000294:	0180b703          	ld	a4,24(ra)
    80000298:	ffff03b7          	lui	t2,0xffff0
    8000029c:	0ff3839b          	addw	t2,t2,255 # ffffffffffff00ff <_end+0xffffffff7ffee0df>
    800002a0:	01039393          	sll	t2,t2,0x10
    800002a4:	0ff38393          	add	t2,t2,255
    800002a8:	01039393          	sll	t2,t2,0x10
    800002ac:	0ff38393          	add	t2,t2,255
    800002b0:	00c39393          	sll	t2,t2,0xc
    800002b4:	00f38393          	add	t2,t2,15
    800002b8:	38771063          	bne	a4,t2,80000638 <fail>

00000000800002bc <test_6>:
    800002bc:	00600193          	li	gp,6
    800002c0:	00ff07b7          	lui	a5,0xff0
    800002c4:	0ff7879b          	addw	a5,a5,255 # ff00ff <_start-0x7f00ff01>
    800002c8:	01079793          	sll	a5,a5,0x10
    800002cc:	0ff78793          	add	a5,a5,255
    800002d0:	01079793          	sll	a5,a5,0x10
    800002d4:	0ff78793          	add	a5,a5,255
    800002d8:	00002097          	auipc	ra,0x2
    800002dc:	d4008093          	add	ra,ra,-704 # 80002018 <tdat4>
    800002e0:	fe80b703          	ld	a4,-24(ra)
    800002e4:	00ff03b7          	lui	t2,0xff0
    800002e8:	0ff3839b          	addw	t2,t2,255 # ff00ff <_start-0x7f00ff01>
    800002ec:	01039393          	sll	t2,t2,0x10
    800002f0:	0ff38393          	add	t2,t2,255
    800002f4:	01039393          	sll	t2,t2,0x10
    800002f8:	0ff38393          	add	t2,t2,255
    800002fc:	32771e63          	bne	a4,t2,80000638 <fail>

0000000080000300 <test_7>:
    80000300:	00700193          	li	gp,7
    80000304:	ff0107b7          	lui	a5,0xff010
    80000308:	f017879b          	addw	a5,a5,-255 # ffffffffff00ff01 <_end+0xffffffff7f00dee1>
    8000030c:	01079793          	sll	a5,a5,0x10
    80000310:	f0178793          	add	a5,a5,-255
    80000314:	01079793          	sll	a5,a5,0x10
    80000318:	f0078793          	add	a5,a5,-256
    8000031c:	00002097          	auipc	ra,0x2
    80000320:	cfc08093          	add	ra,ra,-772 # 80002018 <tdat4>
    80000324:	ff00b703          	ld	a4,-16(ra)
    80000328:	ff0103b7          	lui	t2,0xff010
    8000032c:	f013839b          	addw	t2,t2,-255 # ffffffffff00ff01 <_end+0xffffffff7f00dee1>
    80000330:	01039393          	sll	t2,t2,0x10
    80000334:	f0138393          	add	t2,t2,-255
    80000338:	01039393          	sll	t2,t2,0x10
    8000033c:	f0038393          	add	t2,t2,-256
    80000340:	2e771c63          	bne	a4,t2,80000638 <fail>

0000000080000344 <test_8>:
    80000344:	00800193          	li	gp,8
    80000348:	000107b7          	lui	a5,0x10
    8000034c:	f017879b          	addw	a5,a5,-255 # ff01 <_start-0x7fff00ff>
    80000350:	01079793          	sll	a5,a5,0x10
    80000354:	f0178793          	add	a5,a5,-255
    80000358:	01079793          	sll	a5,a5,0x10
    8000035c:	f0178793          	add	a5,a5,-255
    80000360:	00c79793          	sll	a5,a5,0xc
    80000364:	ff078793          	add	a5,a5,-16
    80000368:	00002097          	auipc	ra,0x2
    8000036c:	cb008093          	add	ra,ra,-848 # 80002018 <tdat4>
    80000370:	ff80b703          	ld	a4,-8(ra)
    80000374:	000103b7          	lui	t2,0x10
    80000378:	f013839b          	addw	t2,t2,-255 # ff01 <_start-0x7fff00ff>
    8000037c:	01039393          	sll	t2,t2,0x10
    80000380:	f0138393          	add	t2,t2,-255
    80000384:	01039393          	sll	t2,t2,0x10
    80000388:	f0138393          	add	t2,t2,-255
    8000038c:	00c39393          	sll	t2,t2,0xc
    80000390:	ff038393          	add	t2,t2,-16
    80000394:	2a771263          	bne	a4,t2,80000638 <fail>

0000000080000398 <test_9>:
    80000398:	00900193          	li	gp,9
    8000039c:	ffff07b7          	lui	a5,0xffff0
    800003a0:	0ff7879b          	addw	a5,a5,255 # ffffffffffff00ff <_end+0xffffffff7ffee0df>
    800003a4:	01079793          	sll	a5,a5,0x10
    800003a8:	0ff78793          	add	a5,a5,255
    800003ac:	01079793          	sll	a5,a5,0x10
    800003b0:	0ff78793          	add	a5,a5,255
    800003b4:	00c79793          	sll	a5,a5,0xc
    800003b8:	00f78793          	add	a5,a5,15
    800003bc:	00002097          	auipc	ra,0x2
    800003c0:	c5c08093          	add	ra,ra,-932 # 80002018 <tdat4>
    800003c4:	0000b703          	ld	a4,0(ra)
    800003c8:	ffff03b7          	lui	t2,0xffff0
    800003cc:	0ff3839b          	addw	t2,t2,255 # ffffffffffff00ff <_end+0xffffffff7ffee0df>
    800003d0:	01039393          	sll	t2,t2,0x10
    800003d4:	0ff38393          	add	t2,t2,255
    800003d8:	01039393          	sll	t2,t2,0x10
    800003dc:	0ff38393          	add	t2,t2,255
    800003e0:	00c39393          	sll	t2,t2,0xc
    800003e4:	00f38393          	add	t2,t2,15
    800003e8:	24771863          	bne	a4,t2,80000638 <fail>

00000000800003ec <test_10>:
    800003ec:	00a00193          	li	gp,10
    800003f0:	00002097          	auipc	ra,0x2
    800003f4:	c1008093          	add	ra,ra,-1008 # 80002000 <begin_signature>
    800003f8:	fe008093          	add	ra,ra,-32
    800003fc:	0200b283          	ld	t0,32(ra)
    80000400:	00ff03b7          	lui	t2,0xff0
    80000404:	0ff3839b          	addw	t2,t2,255 # ff00ff <_start-0x7f00ff01>
    80000408:	01039393          	sll	t2,t2,0x10
    8000040c:	0ff38393          	add	t2,t2,255
    80000410:	01039393          	sll	t2,t2,0x10
    80000414:	0ff38393          	add	t2,t2,255
    80000418:	22729063          	bne	t0,t2,80000638 <fail>

000000008000041c <test_11>:
    8000041c:	00b00193          	li	gp,11
    80000420:	00002097          	auipc	ra,0x2
    80000424:	be008093          	add	ra,ra,-1056 # 80002000 <begin_signature>
    80000428:	ffd08093          	add	ra,ra,-3
    8000042c:	00b0b283          	ld	t0,11(ra)
    80000430:	ff0103b7          	lui	t2,0xff010
    80000434:	f013839b          	addw	t2,t2,-255 # ffffffffff00ff01 <_end+0xffffffff7f00dee1>
    80000438:	01039393          	sll	t2,t2,0x10
    8000043c:	f0138393          	add	t2,t2,-255
    80000440:	01039393          	sll	t2,t2,0x10
    80000444:	f0038393          	add	t2,t2,-256
    80000448:	1e729863          	bne	t0,t2,80000638 <fail>

000000008000044c <test_12>:
    8000044c:	00c00193          	li	gp,12
    80000450:	00000213          	li	tp,0
    80000454:	00002097          	auipc	ra,0x2
    80000458:	bb408093          	add	ra,ra,-1100 # 80002008 <tdat2>
    8000045c:	0080b703          	ld	a4,8(ra)
    80000460:	00070313          	mv	t1,a4
    80000464:	000103b7          	lui	t2,0x10
    80000468:	f013839b          	addw	t2,t2,-255 # ff01 <_start-0x7fff00ff>
    8000046c:	01039393          	sll	t2,t2,0x10
    80000470:	f0138393          	add	t2,t2,-255
    80000474:	01039393          	sll	t2,t2,0x10
    80000478:	f0138393          	add	t2,t2,-255
    8000047c:	00c39393          	sll	t2,t2,0xc
    80000480:	ff038393          	add	t2,t2,-16
    80000484:	1a731a63          	bne	t1,t2,80000638 <fail>
    80000488:	00120213          	add	tp,tp,1 # 1 <_start-0x7fffffff>
    8000048c:	00200293          	li	t0,2
    80000490:	fc5212e3          	bne	tp,t0,80000454 <test_12+0x8>

0000000080000494 <test_13>:
    80000494:	00d00193          	li	gp,13
    80000498:	00000213          	li	tp,0
    8000049c:	00002097          	auipc	ra,0x2
    800004a0:	b7408093          	add	ra,ra,-1164 # 80002010 <tdat3>
    800004a4:	0080b703          	ld	a4,8(ra)
    800004a8:	00000013          	nop
    800004ac:	00070313          	mv	t1,a4
    800004b0:	ffff03b7          	lui	t2,0xffff0
    800004b4:	0ff3839b          	addw	t2,t2,255 # ffffffffffff00ff <_end+0xffffffff7ffee0df>
    800004b8:	01039393          	sll	t2,t2,0x10
    800004bc:	0ff38393          	add	t2,t2,255
    800004c0:	01039393          	sll	t2,t2,0x10
    800004c4:	0ff38393          	add	t2,t2,255
    800004c8:	00c39393          	sll	t2,t2,0xc
    800004cc:	00f38393          	add	t2,t2,15
    800004d0:	16731463          	bne	t1,t2,80000638 <fail>
    800004d4:	00120213          	add	tp,tp,1 # 1 <_start-0x7fffffff>
    800004d8:	00200293          	li	t0,2
    800004dc:	fc5210e3          	bne	tp,t0,8000049c <test_13+0x8>

00000000800004e0 <test_14>:
    800004e0:	00e00193          	li	gp,14
    800004e4:	00000213          	li	tp,0
    800004e8:	00002097          	auipc	ra,0x2
    800004ec:	b1808093          	add	ra,ra,-1256 # 80002000 <begin_signature>
    800004f0:	0080b703          	ld	a4,8(ra)
    800004f4:	00000013          	nop
    800004f8:	00000013          	nop
    800004fc:	00070313          	mv	t1,a4
    80000500:	ff0103b7          	lui	t2,0xff010
    80000504:	f013839b          	addw	t2,t2,-255 # ffffffffff00ff01 <_end+0xffffffff7f00dee1>
    80000508:	01039393          	sll	t2,t2,0x10
    8000050c:	f0138393          	add	t2,t2,-255
    80000510:	01039393          	sll	t2,t2,0x10
    80000514:	f0038393          	add	t2,t2,-256
    80000518:	12731063          	bne	t1,t2,80000638 <fail>
    8000051c:	00120213          	add	tp,tp,1 # 1 <_start-0x7fffffff>
    80000520:	00200293          	li	t0,2
    80000524:	fc5212e3          	bne	tp,t0,800004e8 <test_14+0x8>

0000000080000528 <test_15>:
    80000528:	00f00193          	li	gp,15
    8000052c:	00000213          	li	tp,0
    80000530:	00002097          	auipc	ra,0x2
    80000534:	ad808093          	add	ra,ra,-1320 # 80002008 <tdat2>
    80000538:	0080b703          	ld	a4,8(ra)
    8000053c:	000103b7          	lui	t2,0x10
    80000540:	f013839b          	addw	t2,t2,-255 # ff01 <_start-0x7fff00ff>
    80000544:	01039393          	sll	t2,t2,0x10
    80000548:	f0138393          	add	t2,t2,-255
    8000054c:	01039393          	sll	t2,t2,0x10
    80000550:	f0138393          	add	t2,t2,-255
    80000554:	00c39393          	sll	t2,t2,0xc
    80000558:	ff038393          	add	t2,t2,-16
    8000055c:	0c771e63          	bne	a4,t2,80000638 <fail>
    80000560:	00120213          	add	tp,tp,1 # 1 <_start-0x7fffffff>
    80000564:	00200293          	li	t0,2
    80000568:	fc5214e3          	bne	tp,t0,80000530 <test_15+0x8>

000000008000056c <test_16>:
    8000056c:	01000193          	li	gp,16
    80000570:	00000213          	li	tp,0
    80000574:	00002097          	auipc	ra,0x2
    80000578:	a9c08093          	add	ra,ra,-1380 # 80002010 <tdat3>
    8000057c:	00000013          	nop
    80000580:	0080b703          	ld	a4,8(ra)
    80000584:	ffff03b7          	lui	t2,0xffff0
    80000588:	0ff3839b          	addw	t2,t2,255 # ffffffffffff00ff <_end+0xffffffff7ffee0df>
    8000058c:	01039393          	sll	t2,t2,0x10
    80000590:	0ff38393          	add	t2,t2,255
    80000594:	01039393          	sll	t2,t2,0x10
    80000598:	0ff38393          	add	t2,t2,255
    8000059c:	00c39393          	sll	t2,t2,0xc
    800005a0:	00f38393          	add	t2,t2,15
    800005a4:	08771a63          	bne	a4,t2,80000638 <fail>
    800005a8:	00120213          	add	tp,tp,1 # 1 <_start-0x7fffffff>
    800005ac:	00200293          	li	t0,2
    800005b0:	fc5212e3          	bne	tp,t0,80000574 <test_16+0x8>

00000000800005b4 <test_17>:
    800005b4:	01100193          	li	gp,17
    800005b8:	00000213          	li	tp,0
    800005bc:	00002097          	auipc	ra,0x2
    800005c0:	a4408093          	add	ra,ra,-1468 # 80002000 <begin_signature>
    800005c4:	00000013          	nop
    800005c8:	00000013          	nop
    800005cc:	0080b703          	ld	a4,8(ra)
    800005d0:	ff0103b7          	lui	t2,0xff010
    800005d4:	f013839b          	addw	t2,t2,-255 # ffffffffff00ff01 <_end+0xffffffff7f00dee1>
    800005d8:	01039393          	sll	t2,t2,0x10
    800005dc:	f0138393          	add	t2,t2,-255
    800005e0:	01039393          	sll	t2,t2,0x10
    800005e4:	f0038393          	add	t2,t2,-256
    800005e8:	04771863          	bne	a4,t2,80000638 <fail>
    800005ec:	00120213          	add	tp,tp,1 # 1 <_start-0x7fffffff>
    800005f0:	00200293          	li	t0,2
    800005f4:	fc5214e3          	bne	tp,t0,800005bc <test_17+0x8>

00000000800005f8 <test_18>:
    800005f8:	01200193          	li	gp,18
    800005fc:	00002297          	auipc	t0,0x2
    80000600:	a0428293          	add	t0,t0,-1532 # 80002000 <begin_signature>
    80000604:	0002b103          	ld	sp,0(t0)
    80000608:	00200113          	li	sp,2
    8000060c:	00200393          	li	t2,2
    80000610:	02711463          	bne	sp,t2,80000638 <fail>

0000000080000614 <test_19>:
    80000614:	01300193          	li	gp,19
    80000618:	00002297          	auipc	t0,0x2
    8000061c:	9e828293          	add	t0,t0,-1560 # 80002000 <begin_signature>
    80000620:	0002b103          	ld	sp,0(t0)
    80000624:	00000013          	nop
    80000628:	00200113          	li	sp,2
    8000062c:	00200393          	li	t2,2
    80000630:	00711463          	bne	sp,t2,80000638 <fail>
    80000634:	02301063          	bne	zero,gp,80000654 <pass>

0000000080000638 <fail>:
    80000638:	0ff0000f          	fence
    8000063c:	00018063          	beqz	gp,8000063c <fail+0x4>
    80000640:	00119193          	sll	gp,gp,0x1
    80000644:	0011e193          	or	gp,gp,1
    80000648:	05d00893          	li	a7,93
    8000064c:	00018513          	mv	a0,gp
    80000650:	00000073          	ecall

0000000080000654 <pass>:
    80000654:	0ff0000f          	fence
    80000658:	00100193          	li	gp,1
    8000065c:	05d00893          	li	a7,93
    80000660:	00000513          	li	a0,0
    80000664:	00000073          	ecall
    80000668:	c0001073          	unimp
    8000066c:	0000                	.2byte	0x0
    8000066e:	0000                	.2byte	0x0
    80000670:	0000                	.2byte	0x0
    80000672:	0000                	.2byte	0x0
    80000674:	0000                	.2byte	0x0
    80000676:	0000                	.2byte	0x0
    80000678:	0000                	.2byte	0x0
    8000067a:	0000                	.2byte	0x0
